target datalayout = "e-m:e-p270:32:32-p271:32:32-p272:64:64-i64:64-i128:128-f80:128-n8:16:32:64-S128"
target triple = "x86_64-pc-linux-gnu"

%struct.FT_FaceRec_ = type { i64, i64, i64, i64, i64, ptr, ptr, i32, ptr, i32, ptr, %struct.FT_Generic_, %struct.FT_BBox_, i16, i16, i16, i16, i16, i16, i16, i16, ptr, ptr, ptr, ptr, ptr, ptr, %struct.FT_ListRec_, %struct.FT_Generic_, ptr, ptr }
%struct.FT_BBox_ = type { i64, i64, i64, i64 }
%struct.FT_ListRec_ = type { ptr, ptr }
%struct.FT_Generic_ = type { ptr, ptr }
%struct.FT_DriverRec_ = type { %struct.FT_ModuleRec_, ptr, %struct.FT_ListRec_, ptr }
%struct.FT_ModuleRec_ = type { ptr, ptr, ptr }
%struct.FT_Driver_ClassRec_ = type { %struct.FT_Module_Class_, i64, i64, i64, ptr, ptr, ptr, ptr, ptr, ptr, ptr, ptr, ptr, ptr, ptr, ptr }
%struct.FT_Module_Class_ = type { i64, i64, ptr, i64, i64, ptr, ptr, ptr, ptr }
%struct.FT_MemoryRec_ = type { ptr, ptr, ptr, ptr }
%struct.FT_Open_Args_ = type { i32, ptr, i64, ptr, ptr, ptr, i32, ptr }
%struct.FT_StreamRec_ = type { ptr, i64, i64, %union.FT_StreamDesc_, %union.FT_StreamDesc_, ptr, ptr, ptr, ptr, ptr }
%union.FT_StreamDesc_ = type { i64 }

; Function Attrs: nounwind uwtable
define hidden void @ft_mem_free(ptr noundef %0, ptr noundef %1) #0 {
  %3 = alloca ptr, align 8
  %4 = alloca ptr, align 8
  store ptr %0, ptr %3, align 8, !tbaa !185
  store ptr %1, ptr %4, align 8, !tbaa !41
  %5 = load ptr, ptr %4, align 8, !tbaa !41
  %6 = icmp ne ptr %5, null
  br i1 %6, label %7, label %13

7:                                                ; preds = %2
  %8 = load ptr, ptr %3, align 8, !tbaa !185
  %9 = getelementptr inbounds nuw %struct.FT_MemoryRec_, ptr %8, i32 0, i32 2
  %10 = load ptr, ptr %9, align 8, !tbaa !209
  %11 = load ptr, ptr %3, align 8, !tbaa !185
  %12 = load ptr, ptr %4, align 8, !tbaa !41
  call void %10(ptr noundef %11, ptr noundef %12)
  br label %13

13:                                               ; preds = %7, %2
  ret void
}

; Function Attrs: nounwind uwtable
define hidden void @FT_Stream_Close(ptr noundef %0) #0 {
  %2 = alloca ptr, align 8
  store ptr %0, ptr %2, align 8, !tbaa !268
  %3 = load ptr, ptr %2, align 8, !tbaa !268
  %4 = icmp ne ptr %3, null
  br i1 %4, label %5, label %15

5:                                                ; preds = %1
  %6 = load ptr, ptr %2, align 8, !tbaa !268
  %7 = getelementptr inbounds nuw %struct.FT_StreamRec_, ptr %6, i32 0, i32 6
  %8 = load ptr, ptr %7, align 8, !tbaa !284
  %9 = icmp ne ptr %8, null
  br i1 %9, label %10, label %15

10:                                               ; preds = %5
  %11 = load ptr, ptr %2, align 8, !tbaa !268
  %12 = getelementptr inbounds nuw %struct.FT_StreamRec_, ptr %11, i32 0, i32 6
  %13 = load ptr, ptr %12, align 8, !tbaa !284
  %14 = load ptr, ptr %2, align 8, !tbaa !268
  call void %13(ptr noundef %14)
  br label %15

15:                                               ; preds = %10, %5, %1
  ret void
}

; Function Attrs: nounwind uwtable
define hidden void @FT_Stream_Free(ptr noundef %0, i32 noundef %1) #0 {
  %3 = alloca ptr, align 8
  %4 = alloca i32, align 4
  %5 = alloca ptr, align 8
  store ptr %0, ptr %3, align 8, !tbaa !268
  store i32 %1, ptr %4, align 4, !tbaa !8
  %6 = load ptr, ptr %3, align 8, !tbaa !268
  %7 = icmp ne ptr %6, null
  br i1 %7, label %8, label %22

8:                                                ; preds = %2
  call void @llvm.lifetime.start.p0(i64 8, ptr %5) #10
  %9 = load ptr, ptr %3, align 8, !tbaa !268
  %10 = getelementptr inbounds nuw %struct.FT_StreamRec_, ptr %9, i32 0, i32 7
  %11 = load ptr, ptr %10, align 8, !tbaa !275
  store ptr %11, ptr %5, align 8, !tbaa !185
  %12 = load ptr, ptr %3, align 8, !tbaa !268
  call void @FT_Stream_Close(ptr noundef %12)
  %13 = load i32, ptr %4, align 4, !tbaa !8
  %14 = icmp ne i32 %13, 0
  br i1 %14, label %21, label %15

15:                                               ; preds = %8
  br label %16

16:                                               ; preds = %15
  %17 = load ptr, ptr %5, align 8, !tbaa !185
  %18 = load ptr, ptr %3, align 8, !tbaa !268
  call void @ft_mem_free(ptr noundef %17, ptr noundef %18)
  store ptr null, ptr %3, align 8, !tbaa !268
  br label %19

19:                                               ; preds = %16
  br label %20

20:                                               ; preds = %19
  br label %21

21:                                               ; preds = %20, %8
  call void @llvm.lifetime.end.p0(i64 8, ptr %5) #10
  br label %22

22:                                               ; preds = %21, %2
  ret void
}

; Function Attrs: nounwind uwtable
define i32 @FT_Attach_Stream(ptr noundef %0, ptr noundef %1) #0 {
  %3 = alloca i32, align 4
  %4 = alloca ptr, align 8
  %5 = alloca ptr, align 8
  %6 = alloca ptr, align 8
  %7 = alloca i32, align 4
  %8 = alloca ptr, align 8
  %9 = alloca ptr, align 8
  %10 = alloca i32, align 4
  store ptr %0, ptr %4, align 8, !tbaa !3
  store ptr %1, ptr %5, align 8, !tbaa !264
  call void @llvm.lifetime.start.p0(i64 8, ptr %6) #10
  call void @llvm.lifetime.start.p0(i64 4, ptr %7) #10
  call void @llvm.lifetime.start.p0(i64 8, ptr %8) #10
  call void @llvm.lifetime.start.p0(i64 8, ptr %9) #10
  %11 = load ptr, ptr %4, align 8, !tbaa !3
  %12 = icmp ne ptr %11, null
  br i1 %12, label %14, label %13

13:                                               ; preds = %2
  store i32 35, ptr %3, align 4
  store i32 1, ptr %10, align 4
  br label %67

14:                                               ; preds = %2
  %15 = load ptr, ptr %4, align 8, !tbaa !3
  %16 = getelementptr inbounds nuw %struct.FT_FaceRec_, ptr %15, i32 0, i32 24
  %17 = load ptr, ptr %16, align 8, !tbaa !30
  store ptr %17, ptr %8, align 8, !tbaa !68
  %18 = load ptr, ptr %8, align 8, !tbaa !68
  %19 = icmp ne ptr %18, null
  br i1 %19, label %21, label %20

20:                                               ; preds = %14
  store i32 34, ptr %3, align 4
  store i32 1, ptr %10, align 4
  br label %67

21:                                               ; preds = %14
  %22 = load ptr, ptr %8, align 8, !tbaa !68
  %23 = getelementptr inbounds nuw %struct.FT_DriverRec_, ptr %22, i32 0, i32 0
  %24 = getelementptr inbounds nuw %struct.FT_ModuleRec_, ptr %23, i32 0, i32 1
  %25 = load ptr, ptr %24, align 8, !tbaa !69
  %26 = load ptr, ptr %5, align 8, !tbaa !264
  %27 = call i32 @FT_Stream_New(ptr noundef %25, ptr noundef %26, ptr noundef %6)
  store i32 %27, ptr %7, align 4, !tbaa !8
  %28 = load i32, ptr %7, align 4, !tbaa !8
  %29 = icmp ne i32 %28, 0
  br i1 %29, label %30, label %31

30:                                               ; preds = %21
  br label %65

31:                                               ; preds = %21
  store i32 7, ptr %7, align 4, !tbaa !8
  %32 = load ptr, ptr %8, align 8, !tbaa !68
  %33 = getelementptr inbounds nuw %struct.FT_DriverRec_, ptr %32, i32 0, i32 1
  %34 = load ptr, ptr %33, align 8, !tbaa !31
  store ptr %34, ptr %9, align 8, !tbaa !310
  %35 = load ptr, ptr %9, align 8, !tbaa !310
  %36 = getelementptr inbounds nuw %struct.FT_Driver_ClassRec_, ptr %35, i32 0, i32 12
  %37 = load ptr, ptr %36, align 8, !tbaa !387
  %38 = icmp ne ptr %37, null
  br i1 %38, label %39, label %46

39:                                               ; preds = %31
  %40 = load ptr, ptr %9, align 8, !tbaa !310
  %41 = getelementptr inbounds nuw %struct.FT_Driver_ClassRec_, ptr %40, i32 0, i32 12
  %42 = load ptr, ptr %41, align 8, !tbaa !387
  %43 = load ptr, ptr %4, align 8, !tbaa !3
  %44 = load ptr, ptr %6, align 8, !tbaa !268
  %45 = call i32 %42(ptr noundef %43, ptr noundef %44)
  store i32 %45, ptr %7, align 4, !tbaa !8
  br label %46

46:                                               ; preds = %39, %31
  %47 = load ptr, ptr %6, align 8, !tbaa !268
  %48 = load ptr, ptr %5, align 8, !tbaa !264
  %49 = getelementptr inbounds nuw %struct.FT_Open_Args_, ptr %48, i32 0, i32 4
  %50 = load ptr, ptr %49, align 8, !tbaa !278
  %51 = icmp ne ptr %50, null
  br i1 %51, label %52, label %58

52:                                               ; preds = %46
  %53 = load ptr, ptr %5, align 8, !tbaa !264
  %54 = getelementptr inbounds nuw %struct.FT_Open_Args_, ptr %53, i32 0, i32 0
  %55 = load i32, ptr %54, align 8, !tbaa !270
  %56 = and i32 %55, 2
  %57 = icmp ne i32 %56, 0
  br label %58

58:                                               ; preds = %52, %46
  %59 = phi i1 [ false, %46 ], [ %57, %52 ]
  %60 = zext i1 %59 to i32
  %61 = icmp ne i32 %60, 0
  %62 = zext i1 %61 to i32
  %63 = trunc i32 %62 to i8
  %64 = zext i8 %63 to i32
  call void @FT_Stream_Free(ptr noundef %47, i32 noundef %64)
  br label %65

65:                                               ; preds = %58, %30
  %66 = load i32, ptr %7, align 4, !tbaa !8
  store i32 %66, ptr %3, align 4
  store i32 1, ptr %10, align 4
  br label %67

67:                                               ; preds = %65, %20, %13
  call void @llvm.lifetime.end.p0(i64 8, ptr %9) #10
  call void @llvm.lifetime.end.p0(i64 8, ptr %8) #10
  call void @llvm.lifetime.end.p0(i64 4, ptr %7) #10
  call void @llvm.lifetime.end.p0(i64 8, ptr %6) #10
  %68 = load i32, ptr %3, align 4
  ret i32 %68
}