; Function Attrs: nounwind uwtable
define i32 @FT_Attach_Stream(ptr noundef %0, ptr noundef %1) local_unnamed_addr #0 {
  %3 = alloca ptr, align 8
  call void @llvm.lifetime.start.p0(i64 8, ptr nonnull %3) #34
  %.not = icmp eq ptr %0, null
  br i1 %.not, label %FT_Stream_Free.exit, label %4

4:                                                ; preds = %2
  %5 = getelementptr inbounds nuw i8, ptr %0, i64 176
  %6 = load ptr, ptr %5, align 8, !tbaa !25
  %.not18 = icmp eq ptr %6, null
  br i1 %.not18, label %FT_Stream_Free.exit, label %7

7:                                                ; preds = %4
  %8 = getelementptr inbounds nuw i8, ptr %6, i64 8
  %9 = load ptr, ptr %8, align 8, !tbaa !73
  %10 = call i32 @FT_Stream_New(ptr noundef %9, ptr noundef %1, ptr noundef nonnull %3)
  %.not19 = icmp eq i32 %10, 0
  br i1 %.not19, label %11, label %FT_Stream_Free.exit

11:                                               ; preds = %7
  %12 = getelementptr inbounds nuw i8, ptr %6, i64 24
  %13 = load ptr, ptr %12, align 8, !tbaa !26
  %14 = getelementptr inbounds nuw i8, ptr %13, i64 160
  %15 = load ptr, ptr %14, align 8, !tbaa !328
  %.not20 = icmp eq ptr %15, null
  %.pr = load ptr, ptr %3, align 8, !tbaa !240
  br i1 %.not20, label %thread-pre-split, label %16

16:                                               ; preds = %11
  %17 = tail call i32 %15(ptr noundef nonnull %0, ptr noundef %.pr) #34
  br label %thread-pre-split

thread-pre-split:                                 ; preds = %11, %16
  %.1 = phi i32 [ %17, %16 ], [ 7, %11 ]
  %18 = getelementptr inbounds nuw i8, ptr %1, i64 32
  %19 = load ptr, ptr %18, align 8, !tbaa !253
  %.not21 = icmp eq ptr %19, null
  br i1 %.not21, label %24, label %20

20:                                               ; preds = %thread-pre-split
  %21 = load i32, ptr %1, align 8, !tbaa !242
  %22 = and i32 %21, 2
  %23 = icmp eq i32 %22, 0
  br label %24

24:                                               ; preds = %20, %thread-pre-split
  %.not5.i = phi i1 [ true, %thread-pre-split ], [ %23, %20 ]
  %.not.i = icmp eq ptr %.pr, null
  br i1 %.not.i, label %FT_Stream_Free.exit, label %25

25:                                               ; preds = %24
  %26 = getelementptr inbounds nuw i8, ptr %.pr, i64 56
  %27 = load ptr, ptr %26, align 8, !tbaa !251
  %28 = getelementptr inbounds nuw i8, ptr %.pr, i64 48
  %29 = load ptr, ptr %28, align 8, !tbaa !254
  %.not5.i.i = icmp eq ptr %29, null
  br i1 %.not5.i.i, label %FT_Stream_Close.exit.i, label %30

30:                                               ; preds = %25
  tail call void %29(ptr noundef nonnull %.pr) #34
  br label %FT_Stream_Close.exit.i

FT_Stream_Close.exit.i:                           ; preds = %30, %25
  br i1 %.not5.i, label %ft_mem_free.exit.i, label %FT_Stream_Free.exit

ft_mem_free.exit.i:                               ; preds = %FT_Stream_Close.exit.i
  %31 = getelementptr inbounds nuw i8, ptr %27, i64 16
  %32 = load ptr, ptr %31, align 8, !tbaa !61
  tail call void %32(ptr noundef %27, ptr noundef nonnull %.pr) #34
  br label %FT_Stream_Free.exit

FT_Stream_Free.exit:                              ; preds = %ft_mem_free.exit.i, %FT_Stream_Close.exit.i, %24, %7, %4, %2
  %.0 = phi i32 [ 35, %2 ], [ 34, %4 ], [ %10, %7 ], [ %.1, %24 ], [ %.1, %FT_Stream_Close.exit.i ], [ %.1, %ft_mem_free.exit.i ]
  call void @llvm.lifetime.end.p0(i64 8, ptr nonnull %3) #34
  ret i32 %.0
}